; Function Attrs: mustprogress uwtable
define dso_local void @_ZN16btBU_Simplex1to49addVertexERK9btVector3(ptr noundef nonnull align 8 dereferenceable(184) %0, ptr noundef nonnull readonly align 4 captures(none) dereferenceable(16) %1) local_unnamed_addr #0 align 2 {
  %3 = getelementptr inbounds nuw i8, ptr %0, i64 120
  %4 = getelementptr inbounds nuw i8, ptr %0, i64 116
  %5 = load i32, ptr %4, align 4, !tbaa !7
  %6 = add nsw i32 %5, 1
  store i32 %6, ptr %4, align 4, !tbaa !7
  %7 = sext i32 %5 to i64
  %8 = getelementptr inbounds [4 x %class.btVector3], ptr %3, i64 0, i64 %7
  tail call void @llvm.memcpy.p0.p0.i64(ptr noundef nonnull align 8 dereferenceable(16) %8, ptr noundef nonnull align 4 dereferenceable(16) %1, i64 16, i1 false), !tbaa.struct !22
  tail call void @_ZN34btPolyhedralConvexAabbCachingShape15recalcLocalAabbEv(ptr noundef nonnull align 8 dereferenceable(113) %0)
  ret void
}